(VMore Mayhem
p0
VImelda May
p1
I2011
((I1
VPulling the Rug
p2
tp3
(I2
VPsycho
p4
tp5
(I3
VMayhem
p6
tp7
(I4
VKentish Town Waltz
p8
tp9
tp10
tp11
.(lp0
I0
aI2
aI4
aI6
aI8
a.(lp0
I1
aI3
aI5
aI7
aI9
a.I2998302
.